target datalayout = "e-m:e-p270:32:32-p271:32:32-p272:64:64-i64:64-i128:128-f80:128-n8:16:32:64-S128"
target triple = "x86_64-pc-linux-gnu"

%struct.jpeg_compress_struct = type { ptr, ptr, ptr, ptr, i32, i32, ptr, i32, i32, i32, i32, double, i32, i32, i32, ptr, [4 x ptr], [4 x ptr], [4 x ptr], [16 x i8], [16 x i8], [16 x i8], i32, ptr, i32, i32, i32, i32, i32, i32, i32, i32, i32, i8, i8, i8, i16, i16, i32, i32, i32, i32, i32, i32, i32, [4 x ptr], i32, i32, i32, [10 x i32], i32, i32, i32, i32, ptr, ptr, ptr, ptr, ptr, ptr, ptr, ptr, ptr, ptr, i32 }
%struct.my_mem_destination_mgr = type { %struct.jpeg_destination_mgr, ptr, ptr, ptr, ptr, i64, i32 }
%struct.jpeg_destination_mgr = type { ptr, i64, ptr, ptr, ptr }

; Function Attrs: nounwind uwtable
define internal void @term_mem_destination(ptr noundef %0) #0 {
  %2 = alloca ptr, align 8
  %3 = alloca ptr, align 8
  store ptr %0, ptr %2, align 8, !tbaa !3
  call void @llvm.lifetime.start.p0(i64 8, ptr %3) #5
  %4 = load ptr, ptr %2, align 8, !tbaa !3
  %5 = getelementptr inbounds nuw %struct.jpeg_compress_struct, ptr %4, i32 0, i32 6
  %6 = load ptr, ptr %5, align 8, !tbaa !35
  store ptr %6, ptr %3, align 8, !tbaa !39
  %7 = load ptr, ptr %3, align 8, !tbaa !39
  %8 = getelementptr inbounds nuw %struct.my_mem_destination_mgr, ptr %7, i32 0, i32 6
  %9 = load i32, ptr %8, align 8, !tbaa !52
  %10 = icmp ne i32 %9, 0
  br i1 %10, label %11, label %18

11:                                               ; preds = %1
  %12 = load ptr, ptr %3, align 8, !tbaa !39
  %13 = getelementptr inbounds nuw %struct.my_mem_destination_mgr, ptr %12, i32 0, i32 4
  %14 = load ptr, ptr %13, align 8, !tbaa !44
  %15 = load ptr, ptr %3, align 8, !tbaa !39
  %16 = getelementptr inbounds nuw %struct.my_mem_destination_mgr, ptr %15, i32 0, i32 1
  %17 = load ptr, ptr %16, align 8, !tbaa !50
  store ptr %14, ptr %17, align 8, !tbaa !49
  br label %18

18:                                               ; preds = %11, %1
  %19 = load ptr, ptr %3, align 8, !tbaa !39
  %20 = getelementptr inbounds nuw %struct.my_mem_destination_mgr, ptr %19, i32 0, i32 5
  %21 = load i64, ptr %20, align 8, !tbaa !56
  %22 = load ptr, ptr %3, align 8, !tbaa !39
  %23 = getelementptr inbounds nuw %struct.my_mem_destination_mgr, ptr %22, i32 0, i32 0
  %24 = getelementptr inbounds nuw %struct.jpeg_destination_mgr, ptr %23, i32 0, i32 1
  %25 = load i64, ptr %24, align 8, !tbaa !57
  %26 = sub i64 %21, %25
  %27 = load ptr, ptr %3, align 8, !tbaa !39
  %28 = getelementptr inbounds nuw %struct.my_mem_destination_mgr, ptr %27, i32 0, i32 2
  %29 = load ptr, ptr %28, align 8, !tbaa !51
  store i64 %26, ptr %29, align 8, !tbaa !53
  call void @llvm.lifetime.end.p0(i64 8, ptr %3) #5
  ret void
}