; Function Attrs: mustprogress nofree norecurse nosync nounwind willreturn memory(readwrite, inaccessiblemem: none) uwtable
define internal void @term_mem_destination(ptr noundef readonly captures(none) %0) #2 {
  %2 = getelementptr inbounds nuw i8, ptr %0, i64 40
  %3 = load ptr, ptr %2, align 8, !tbaa !29
  %4 = getelementptr inbounds nuw i8, ptr %3, i64 80
  %5 = load i32, ptr %4, align 8, !tbaa !45
  %.not = icmp eq i32 %5, 0
  br i1 %.not, label %11, label %6

6:                                                ; preds = %1
  %7 = getelementptr inbounds nuw i8, ptr %3, i64 64
  %8 = load ptr, ptr %7, align 8, !tbaa !41
  %9 = getelementptr inbounds nuw i8, ptr %3, i64 40
  %10 = load ptr, ptr %9, align 8, !tbaa !43
  store ptr %8, ptr %10, align 8, !tbaa !42
  br label %11

11:                                               ; preds = %6, %1
  %12 = getelementptr inbounds nuw i8, ptr %3, i64 72
  %13 = load i64, ptr %12, align 8, !tbaa !50
  %14 = getelementptr inbounds nuw i8, ptr %3, i64 8
  %15 = load i64, ptr %14, align 8, !tbaa !51
  %16 = sub i64 %13, %15
  %17 = getelementptr inbounds nuw i8, ptr %3, i64 48
  %18 = load ptr, ptr %17, align 8, !tbaa !44
  store i64 %16, ptr %18, align 8, !tbaa !46
  ret void
}